; Function Attrs: nounwind sspstrong uwtable
define internal ptr @virtio_bus_get_dev_path(ptr noundef %dev) #0 {
entry:
  %call = tail call ptr @qdev_get_parent_bus(ptr noundef %dev) #5
  %parent = getelementptr inbounds nuw i8, ptr %call, i64 40
  %0 = load ptr, ptr %parent, align 8
  %call.i = tail call ptr @object_dynamic_cast_assert(ptr noundef %0, ptr noundef nonnull @.str.8, ptr noundef nonnull @.str.9, i32 noundef 77, ptr noundef nonnull @__func__.DEVICE) #5
  %call2 = tail call ptr @qdev_get_dev_path(ptr noundef %call.i) #5
  ret ptr %call2
}